target datalayout = "e-m:e-p270:32:32-p271:32:32-p272:64:64-i64:64-i128:128-f80:128-n8:16:32:64-S128"
target triple = "x86_64-pc-linux-gnu"

%struct.Vec_Int_t_ = type { i32, i32, ptr }
%struct.Prs_Ntk_t_ = type { i32, i8, ptr, ptr, ptr, %struct.Vec_Int_t_, %struct.Vec_Int_t_, %struct.Vec_Int_t_, %struct.Vec_Int_t_, %struct.Vec_Int_t_, %struct.Vec_Int_t_, %struct.Vec_Int_t_, %struct.Vec_Int_t_, %struct.Vec_Int_t_, %struct.Vec_Int_t_, %struct.Vec_Int_t_, %struct.Vec_Int_t_, %struct.Vec_Int_t_ }

; Function Attrs: inlinehint nounwind uwtable
define internal i32 @Vec_IntEntry(ptr noundef %0, i32 noundef %1) #2 {
  %3 = alloca ptr, align 8
  %4 = alloca i32, align 4
  store ptr %0, ptr %3, align 8, !tbaa !51
  store i32 %1, ptr %4, align 4, !tbaa !28
  %5 = load ptr, ptr %3, align 8, !tbaa !51
  %6 = getelementptr inbounds nuw %struct.Vec_Int_t_, ptr %5, i32 0, i32 2
  %7 = load ptr, ptr %6, align 8, !tbaa !53
  %8 = load i32, ptr %4, align 4, !tbaa !28
  %9 = sext i32 %8 to i64
  %10 = getelementptr inbounds i32, ptr %7, i64 %9
  %11 = load i32, ptr %10, align 4, !tbaa !28
  ret i32 %11
}

; Function Attrs: inlinehint nounwind uwtable
define internal void @Vec_IntGrow(ptr noundef %0, i32 noundef %1) #2 {
  %3 = alloca ptr, align 8
  %4 = alloca i32, align 4
  store ptr %0, ptr %3, align 8, !tbaa !51
  store i32 %1, ptr %4, align 4, !tbaa !28
  %5 = load ptr, ptr %3, align 8, !tbaa !51
  %6 = getelementptr inbounds nuw %struct.Vec_Int_t_, ptr %5, i32 0, i32 0
  %7 = load i32, ptr %6, align 8, !tbaa !57
  %8 = load i32, ptr %4, align 4, !tbaa !28
  %9 = icmp sge i32 %7, %8
  br i1 %9, label %10, label %11

10:                                               ; preds = %2
  br label %36

11:                                               ; preds = %2
  %12 = load ptr, ptr %3, align 8, !tbaa !51
  %13 = getelementptr inbounds nuw %struct.Vec_Int_t_, ptr %12, i32 0, i32 2
  %14 = load ptr, ptr %13, align 8, !tbaa !53
  %15 = icmp ne ptr %14, null
  br i1 %15, label %16, label %24

16:                                               ; preds = %11
  %17 = load ptr, ptr %3, align 8, !tbaa !51
  %18 = getelementptr inbounds nuw %struct.Vec_Int_t_, ptr %17, i32 0, i32 2
  %19 = load ptr, ptr %18, align 8, !tbaa !53
  %20 = load i32, ptr %4, align 4, !tbaa !28
  %21 = sext i32 %20 to i64
  %22 = mul i64 4, %21
  %23 = call ptr @realloc(ptr noundef %19, i64 noundef %22) #15
  br label %29

24:                                               ; preds = %11
  %25 = load i32, ptr %4, align 4, !tbaa !28
  %26 = sext i32 %25 to i64
  %27 = mul i64 4, %26
  %28 = call noalias ptr @malloc(i64 noundef %27) #14
  br label %29

29:                                               ; preds = %24, %16
  %30 = phi ptr [ %23, %16 ], [ %28, %24 ]
  %31 = load ptr, ptr %3, align 8, !tbaa !51
  %32 = getelementptr inbounds nuw %struct.Vec_Int_t_, ptr %31, i32 0, i32 2
  store ptr %30, ptr %32, align 8, !tbaa !53
  %33 = load i32, ptr %4, align 4, !tbaa !28
  %34 = load ptr, ptr %3, align 8, !tbaa !51
  %35 = getelementptr inbounds nuw %struct.Vec_Int_t_, ptr %34, i32 0, i32 0
  store i32 %33, ptr %35, align 8, !tbaa !57
  br label %36

36:                                               ; preds = %29, %10
  ret void
}

; Function Attrs: inlinehint nounwind uwtable
define internal void @Vec_IntAppend(ptr noundef %0, ptr noundef %1) #2 {
  %3 = alloca ptr, align 8
  %4 = alloca ptr, align 8
  %5 = alloca i32, align 4
  %6 = alloca i32, align 4
  store ptr %0, ptr %3, align 8, !tbaa !51
  store ptr %1, ptr %4, align 8, !tbaa !51
  call void @llvm.lifetime.start.p0(i64 4, ptr %5) #12
  call void @llvm.lifetime.start.p0(i64 4, ptr %6) #12
  store i32 0, ptr %6, align 4, !tbaa !28
  br label %7

7:                                                ; preds = %21, %2
  %8 = load i32, ptr %6, align 4, !tbaa !28
  %9 = load ptr, ptr %4, align 8, !tbaa !51
  %10 = call i32 @Vec_IntSize(ptr noundef %9)
  %11 = icmp slt i32 %8, %10
  br i1 %11, label %12, label %16

12:                                               ; preds = %7
  %13 = load ptr, ptr %4, align 8, !tbaa !51
  %14 = load i32, ptr %6, align 4, !tbaa !28
  %15 = call i32 @Vec_IntEntry(ptr noundef %13, i32 noundef %14)
  store i32 %15, ptr %5, align 4, !tbaa !28
  br label %16

16:                                               ; preds = %12, %7
  %17 = phi i1 [ false, %7 ], [ true, %12 ]
  br i1 %17, label %18, label %24

18:                                               ; preds = %16
  %19 = load ptr, ptr %3, align 8, !tbaa !51
  %20 = load i32, ptr %5, align 4, !tbaa !28
  call void @Vec_IntPush(ptr noundef %19, i32 noundef %20)
  br label %21

21:                                               ; preds = %18
  %22 = load i32, ptr %6, align 4, !tbaa !28
  %23 = add nsw i32 %22, 1
  store i32 %23, ptr %6, align 4, !tbaa !28
  br label %7, !llvm.loop !110

24:                                               ; preds = %16
  call void @llvm.lifetime.end.p0(i64 4, ptr %6) #12
  call void @llvm.lifetime.end.p0(i64 4, ptr %5) #12
  ret void
}

; Function Attrs: inlinehint nounwind uwtable
define internal void @Vec_IntPush(ptr noundef %0, i32 noundef %1) #2 {
  %3 = alloca ptr, align 8
  %4 = alloca i32, align 4
  store ptr %0, ptr %3, align 8, !tbaa !51
  store i32 %1, ptr %4, align 4, !tbaa !28
  %5 = load ptr, ptr %3, align 8, !tbaa !51
  %6 = getelementptr inbounds nuw %struct.Vec_Int_t_, ptr %5, i32 0, i32 1
  %7 = load i32, ptr %6, align 4, !tbaa !56
  %8 = load ptr, ptr %3, align 8, !tbaa !51
  %9 = getelementptr inbounds nuw %struct.Vec_Int_t_, ptr %8, i32 0, i32 0
  %10 = load i32, ptr %9, align 8, !tbaa !57
  %11 = icmp eq i32 %7, %10
  br i1 %11, label %12, label %26

12:                                               ; preds = %2
  %13 = load ptr, ptr %3, align 8, !tbaa !51
  %14 = getelementptr inbounds nuw %struct.Vec_Int_t_, ptr %13, i32 0, i32 0
  %15 = load i32, ptr %14, align 8, !tbaa !57
  %16 = icmp slt i32 %15, 16
  br i1 %16, label %17, label %19

17:                                               ; preds = %12
  %18 = load ptr, ptr %3, align 8, !tbaa !51
  call void @Vec_IntGrow(ptr noundef %18, i32 noundef 16)
  br label %25

19:                                               ; preds = %12
  %20 = load ptr, ptr %3, align 8, !tbaa !51
  %21 = load ptr, ptr %3, align 8, !tbaa !51
  %22 = getelementptr inbounds nuw %struct.Vec_Int_t_, ptr %21, i32 0, i32 0
  %23 = load i32, ptr %22, align 8, !tbaa !57
  %24 = mul nsw i32 2, %23
  call void @Vec_IntGrow(ptr noundef %20, i32 noundef %24)
  br label %25

25:                                               ; preds = %19, %17
  br label %26

26:                                               ; preds = %25, %2
  %27 = load i32, ptr %4, align 4, !tbaa !28
  %28 = load ptr, ptr %3, align 8, !tbaa !51
  %29 = getelementptr inbounds nuw %struct.Vec_Int_t_, ptr %28, i32 0, i32 2
  %30 = load ptr, ptr %29, align 8, !tbaa !53
  %31 = load ptr, ptr %3, align 8, !tbaa !51
  %32 = getelementptr inbounds nuw %struct.Vec_Int_t_, ptr %31, i32 0, i32 1
  %33 = load i32, ptr %32, align 4, !tbaa !56
  %34 = add nsw i32 %33, 1
  store i32 %34, ptr %32, align 4, !tbaa !56
  %35 = sext i32 %33 to i64
  %36 = getelementptr inbounds i32, ptr %30, i64 %35
  store i32 %27, ptr %36, align 4, !tbaa !28
  ret void
}

; Function Attrs: inlinehint nounwind uwtable
define internal i32 @Vec_IntSize(ptr noundef %0) #2 {
  %2 = alloca ptr, align 8
  store ptr %0, ptr %2, align 8, !tbaa !51
  %3 = load ptr, ptr %2, align 8, !tbaa !51
  %4 = getelementptr inbounds nuw %struct.Vec_Int_t_, ptr %3, i32 0, i32 1
  %5 = load i32, ptr %4, align 4, !tbaa !56
  ret i32 %5
}

; Function Attrs: inlinehint nounwind uwtable
define internal void @Prs_NtkAddBox(ptr noundef %0, i32 noundef %1, i32 noundef %2, ptr noundef %3) #2 {
  %5 = alloca ptr, align 8
  %6 = alloca i32, align 4
  %7 = alloca i32, align 4
  %8 = alloca ptr, align 8
  %9 = alloca i32, align 4
  store ptr %0, ptr %5, align 8, !tbaa !40
  store i32 %1, ptr %6, align 4, !tbaa !28
  store i32 %2, ptr %7, align 4, !tbaa !28
  store ptr %3, ptr %8, align 8, !tbaa !51
  call void @llvm.lifetime.start.p0(i64 4, ptr %9) #12
  %10 = load ptr, ptr %5, align 8, !tbaa !40
  %11 = getelementptr inbounds nuw %struct.Prs_Ntk_t_, ptr %10, i32 0, i32 16
  %12 = call i32 @Vec_IntSize(ptr noundef %11)
  %13 = and i32 %12, 1
  %14 = icmp ne i32 %13, 0
  br i1 %14, label %18, label %15

15:                                               ; preds = %4
  %16 = load ptr, ptr %5, align 8, !tbaa !40
  %17 = getelementptr inbounds nuw %struct.Prs_Ntk_t_, ptr %16, i32 0, i32 16
  call void @Vec_IntPush(ptr noundef %17, i32 noundef -1)
  br label %18

18:                                               ; preds = %15, %4
  %19 = load ptr, ptr %5, align 8, !tbaa !40
  %20 = getelementptr inbounds nuw %struct.Prs_Ntk_t_, ptr %19, i32 0, i32 16
  %21 = call i32 @Vec_IntSize(ptr noundef %20)
  store i32 %21, ptr %9, align 4, !tbaa !28
  %22 = load ptr, ptr %5, align 8, !tbaa !40
  %23 = getelementptr inbounds nuw %struct.Prs_Ntk_t_, ptr %22, i32 0, i32 17
  %24 = load i32, ptr %9, align 4, !tbaa !28
  call void @Vec_IntPush(ptr noundef %23, i32 noundef %24)
  %25 = load ptr, ptr %5, align 8, !tbaa !40
  %26 = getelementptr inbounds nuw %struct.Prs_Ntk_t_, ptr %25, i32 0, i32 16
  %27 = load ptr, ptr %8, align 8, !tbaa !51
  %28 = call i32 @Vec_IntSize(ptr noundef %27)
  %29 = add nsw i32 %28, 2
  call void @Vec_IntPush(ptr noundef %26, i32 noundef %29)
  %30 = load ptr, ptr %5, align 8, !tbaa !40
  %31 = getelementptr inbounds nuw %struct.Prs_Ntk_t_, ptr %30, i32 0, i32 16
  %32 = load i32, ptr %6, align 4, !tbaa !28
  call void @Vec_IntPush(ptr noundef %31, i32 noundef %32)
  %33 = load ptr, ptr %5, align 8, !tbaa !40
  %34 = getelementptr inbounds nuw %struct.Prs_Ntk_t_, ptr %33, i32 0, i32 16
  %35 = load i32, ptr %7, align 4, !tbaa !28
  call void @Vec_IntPush(ptr noundef %34, i32 noundef %35)
  %36 = load ptr, ptr %5, align 8, !tbaa !40
  %37 = getelementptr inbounds nuw %struct.Prs_Ntk_t_, ptr %36, i32 0, i32 16
  %38 = load ptr, ptr %8, align 8, !tbaa !51
  call void @Vec_IntAppend(ptr noundef %37, ptr noundef %38)
  call void @llvm.lifetime.end.p0(i64 4, ptr %9) #12
  ret void
}